target datalayout = "e-m:e-p270:32:32-p271:32:32-p272:64:64-i64:64-i128:128-f80:128-n8:16:32:64-S128"
target triple = "x86_64-pc-linux-gnu"

%"struct.std::_Rb_tree_key_compare" = type { %"struct.std::less" }
%"struct.std::less" = type { i8 }
%"struct.std::_Rb_tree_header" = type { %"struct.std::_Rb_tree_node_base", i64 }
%"struct.std::_Rb_tree_node_base" = type { i32, ptr, ptr, ptr }
%"class.std::__cxx11::basic_string" = type { %"struct.std::__cxx11::basic_string<char>::_Alloc_hider", i64, %union.anon }
%"struct.std::__cxx11::basic_string<char>::_Alloc_hider" = type { ptr }
%union.anon = type { i64, [8 x i8] }
%"class.casadi::FiniteDiff" = type { %"class.casadi::FunctionInternal", i64, i64, double, i64, i64, double, double, double, %"struct.casadi::casadi_finite_diff_mem" }
%"class.casadi::FunctionInternal" = type { %"class.casadi::ProtoFunction", i8, i8, i64, i64, %"class.std::vector.6", %"class.std::vector.6", %"class.std::vector.10", %"class.std::vector.10", %"class.std::vector.15", %"class.std::vector.15", i8, i8, %"class.std::__cxx11::basic_string", %"class.std::__cxx11::basic_string", %"class.std::__cxx11::basic_string", i8, ptr, ptr, ptr, %"class.std::map", i8, %"class.std::map", %"class.std::map.23", [2 x %"class.std::vector.10"], %"class.casadi::Function", ptr, %"class.std::__cxx11::basic_string", %"class.casadi::Importer", %"class.std::map", double, i8, i8, i8, i8, i8, i8, i8, i8, double, double, i64, i8, %"class.std::map", double, %"class.std::__cxx11::basic_string", i8, i8, i64, i8, i8, i8, %"class.std::__cxx11::basic_string", %"class.std::__cxx11::basic_string", %"class.std::map", %"class.std::map", %"class.std::map", %"class.std::map", %"class.casadi::Function", i64, i64, i64, i64, i64, i64, i64, i64, i64 }
%"class.casadi::ProtoFunction" = type { %"class.casadi::SharedObjectInternal", %"class.std::__cxx11::basic_string", i8, i8, i8, i8, i8, %"class.std::vector", %"class.std::stack" }
%"class.casadi::SharedObjectInternal" = type { ptr, i64, ptr }
%"class.std::vector" = type { %"struct.std::_Vector_base" }
%"struct.std::_Vector_base" = type { %"struct.std::_Vector_base<void *, std::allocator<void *>>::_Vector_impl" }
%"struct.std::_Vector_base<void *, std::allocator<void *>>::_Vector_impl" = type { %"struct.std::_Vector_base<void *, std::allocator<void *>>::_Vector_impl_data" }
%"struct.std::_Vector_base<void *, std::allocator<void *>>::_Vector_impl_data" = type { ptr, ptr, ptr }
%"class.std::stack" = type { %"class.std::deque" }
%"class.std::deque" = type { %"class.std::_Deque_base" }
%"class.std::_Deque_base" = type { %"struct.std::_Deque_base<int, std::allocator<int>>::_Deque_impl" }
%"struct.std::_Deque_base<int, std::allocator<int>>::_Deque_impl" = type { %"struct.std::_Deque_base<int, std::allocator<int>>::_Deque_impl_data" }
%"struct.std::_Deque_base<int, std::allocator<int>>::_Deque_impl_data" = type { ptr, i64, %"struct.std::_Deque_iterator", %"struct.std::_Deque_iterator" }
%"struct.std::_Deque_iterator" = type { ptr, ptr, ptr, ptr }
%"class.std::vector.6" = type { %"struct.std::_Bvector_base" }
%"struct.std::_Bvector_base" = type { %"struct.std::_Bvector_base<std::allocator<bool>>::_Bvector_impl" }
%"struct.std::_Bvector_base<std::allocator<bool>>::_Bvector_impl" = type { %"struct.std::_Bvector_base<std::allocator<bool>>::_Bvector_impl_data" }
%"struct.std::_Bvector_base<std::allocator<bool>>::_Bvector_impl_data" = type { %"struct.std::_Bit_iterator", %"struct.std::_Bit_iterator", ptr }
%"struct.std::_Bit_iterator" = type { %"struct.std::_Bit_iterator_base.base", [4 x i8] }
%"struct.std::_Bit_iterator_base.base" = type <{ ptr, i32 }>
%"class.std::vector.10" = type { %"struct.std::_Vector_base.11" }
%"struct.std::_Vector_base.11" = type { %"struct.std::_Vector_base<casadi::Sparsity, std::allocator<casadi::Sparsity>>::_Vector_impl" }
%"struct.std::_Vector_base<casadi::Sparsity, std::allocator<casadi::Sparsity>>::_Vector_impl" = type { %"struct.std::_Vector_base<casadi::Sparsity, std::allocator<casadi::Sparsity>>::_Vector_impl_data" }
%"struct.std::_Vector_base<casadi::Sparsity, std::allocator<casadi::Sparsity>>::_Vector_impl_data" = type { ptr, ptr, ptr }
%"class.std::vector.15" = type { %"struct.std::_Vector_base.16" }
%"struct.std::_Vector_base.16" = type { %"struct.std::_Vector_base<std::__cxx11::basic_string<char>, std::allocator<std::__cxx11::basic_string<char>>>::_Vector_impl" }
%"struct.std::_Vector_base<std::__cxx11::basic_string<char>, std::allocator<std::__cxx11::basic_string<char>>>::_Vector_impl" = type { %"struct.std::_Vector_base<std::__cxx11::basic_string<char>, std::allocator<std::__cxx11::basic_string<char>>>::_Vector_impl_data" }
%"struct.std::_Vector_base<std::__cxx11::basic_string<char>, std::allocator<std::__cxx11::basic_string<char>>>::_Vector_impl_data" = type { ptr, ptr, ptr }
%"class.std::map.23" = type { %"class.std::_Rb_tree.24" }
%"class.std::_Rb_tree.24" = type { %"struct.std::_Rb_tree<std::__cxx11::basic_string<char>, std::pair<const std::__cxx11::basic_string<char>, casadi::WeakRef>, std::_Select1st<std::pair<const std::__cxx11::basic_string<char>, casadi::WeakRef>>, std::less<std::__cxx11::basic_string<char>>>::_Rb_tree_impl" }
%"struct.std::_Rb_tree<std::__cxx11::basic_string<char>, std::pair<const std::__cxx11::basic_string<char>, casadi::WeakRef>, std::_Select1st<std::pair<const std::__cxx11::basic_string<char>, casadi::WeakRef>>, std::less<std::__cxx11::basic_string<char>>>::_Rb_tree_impl" = type { %"struct.std::_Rb_tree_key_compare", %"struct.std::_Rb_tree_header" }
%"class.casadi::Importer" = type { %"class.casadi::SharedObject" }
%"class.casadi::SharedObject" = type { ptr }
%"class.std::map" = type { %"class.std::_Rb_tree" }
%"class.std::_Rb_tree" = type { %"struct.std::_Rb_tree<std::__cxx11::basic_string<char>, std::pair<const std::__cxx11::basic_string<char>, casadi::GenericType>, std::_Select1st<std::pair<const std::__cxx11::basic_string<char>, casadi::GenericType>>, std::less<std::__cxx11::basic_string<char>>>::_Rb_tree_impl" }
%"struct.std::_Rb_tree<std::__cxx11::basic_string<char>, std::pair<const std::__cxx11::basic_string<char>, casadi::GenericType>, std::_Select1st<std::pair<const std::__cxx11::basic_string<char>, casadi::GenericType>>, std::less<std::__cxx11::basic_string<char>>>::_Rb_tree_impl" = type { %"struct.std::_Rb_tree_key_compare", %"struct.std::_Rb_tree_header" }
%"class.casadi::Function" = type { %"class.casadi::SharedObject" }
%"struct.casadi::casadi_finite_diff_mem" = type { double, double, double }

; Function Attrs: mustprogress nounwind uwtable
define linkonce_odr hidden noundef double @_ZNSt14numeric_limitsIdE9quiet_NaNEv() #5 comdat align 2 {
  ret double 0x7FF8000000000000
}

; Function Attrs: mustprogress nounwind uwtable
define linkonce_odr noundef zeroext i1 @_ZSt8isfinited(double noundef %0) #5 comdat {
  %2 = alloca double, align 8
  store double %0, ptr %2, align 8
  %3 = load double, ptr %2, align 8
  %4 = call i1 @llvm.is.fpclass.f64(double %3, i32 504)
  ret i1 %4
}

; Function Attrs: mustprogress nounwind uwtable
define linkonce_odr hidden noundef double @_ZN6casadi23casadi_central_diff_oldIdEET_PPS1_S2_S2_S1_xPKNS_22casadi_finite_diff_memIS1_EE(ptr noundef %0, ptr noundef %1, ptr noundef %2, double noundef %3, i64 noundef %4, ptr noundef %5) #5 comdat {
  %7 = alloca ptr, align 8
  %8 = alloca ptr, align 8
  %9 = alloca ptr, align 8
  %10 = alloca double, align 8
  %11 = alloca i64, align 8
  %12 = alloca ptr, align 8
  %13 = alloca double, align 8
  %14 = alloca double, align 8
  %15 = alloca double, align 8
  %16 = alloca double, align 8
  %17 = alloca double, align 8
  %18 = alloca double, align 8
  %19 = alloca i64, align 8
  store ptr %0, ptr %7, align 8
  store ptr %1, ptr %8, align 8
  store ptr %2, ptr %9, align 8
  store double %3, ptr %10, align 8
  store i64 %4, ptr %11, align 8
  store ptr %5, ptr %12, align 8
  store double 0.000000e+00, ptr %13, align 8
  store double 0.000000e+00, ptr %16, align 8
  store double 0.000000e+00, ptr %15, align 8
  store double 0.000000e+00, ptr %14, align 8
  store i64 0, ptr %19, align 8
  br label %20

20:                                               ; preds = %94, %6
  %21 = load i64, ptr %19, align 8
  %22 = load i64, ptr %11, align 8
  %23 = icmp slt i64 %21, %22
  br i1 %23, label %24, label %97

24:                                               ; preds = %20
  %25 = load ptr, ptr %7, align 8
  %26 = getelementptr inbounds ptr, ptr %25, i64 1
  %27 = load ptr, ptr %26, align 8
  %28 = load i64, ptr %19, align 8
  %29 = getelementptr inbounds double, ptr %27, i64 %28
  %30 = load double, ptr %29, align 8
  store double %30, ptr %14, align 8
  %31 = call noundef zeroext i1 @_ZSt8isfinited(double noundef %30)
  br i1 %31, label %32, label %46

32:                                               ; preds = %24
  %33 = load ptr, ptr %8, align 8
  %34 = load i64, ptr %19, align 8
  %35 = getelementptr inbounds double, ptr %33, i64 %34
  %36 = load double, ptr %35, align 8
  store double %36, ptr %15, align 8
  %37 = call noundef zeroext i1 @_ZSt8isfinited(double noundef %36)
  br i1 %37, label %38, label %46

38:                                               ; preds = %32
  %39 = load ptr, ptr %7, align 8
  %40 = getelementptr inbounds ptr, ptr %39, i64 0
  %41 = load ptr, ptr %40, align 8
  %42 = load i64, ptr %19, align 8
  %43 = getelementptr inbounds double, ptr %41, i64 %42
  %44 = load double, ptr %43, align 8
  store double %44, ptr %16, align 8
  %45 = call noundef zeroext i1 @_ZSt8isfinited(double noundef %44)
  br i1 %45, label %51, label %46

46:                                               ; preds = %38, %32, %24
  %47 = call noundef double @_ZNSt14numeric_limitsIdE9quiet_NaNEv() #3
  %48 = load ptr, ptr %9, align 8
  %49 = load i64, ptr %19, align 8
  %50 = getelementptr inbounds double, ptr %48, i64 %49
  store double %47, ptr %50, align 8
  store double -1.000000e+00, ptr %13, align 8
  br label %94

51:                                               ; preds = %38
  %52 = load double, ptr %14, align 8
  %53 = load double, ptr %16, align 8
  %54 = fsub double %52, %53
  %55 = load double, ptr %10, align 8
  %56 = fmul double 2.000000e+00, %55
  %57 = fdiv double %54, %56
  %58 = load ptr, ptr %9, align 8
  %59 = load i64, ptr %19, align 8
  %60 = getelementptr inbounds double, ptr %58, i64 %59
  store double %57, ptr %60, align 8
  %61 = load double, ptr %14, align 8
  %62 = load double, ptr %15, align 8
  %63 = call double @llvm.fmuladd.f64(double -2.000000e+00, double %62, double %61)
  %64 = load double, ptr %16, align 8
  %65 = fadd double %63, %64
  store double %65, ptr %17, align 8
  %66 = load ptr, ptr %12, align 8
  %67 = getelementptr inbounds %"struct.casadi::casadi_finite_diff_mem", ptr %66, i32 0, i32 0
  %68 = load double, ptr %67, align 8
  %69 = load double, ptr %10, align 8
  %70 = fdiv double %68, %69
  %71 = load double, ptr %14, align 8
  %72 = load double, ptr %15, align 8
  %73 = fsub double %71, %72
  %74 = call double @llvm.fabs.f64(double %73)
  %75 = load double, ptr %15, align 8
  %76 = load double, ptr %16, align 8
  %77 = fsub double %75, %76
  %78 = call double @llvm.fabs.f64(double %77)
  %79 = call double @llvm.maxnum.f64(double %74, double %78)
  %80 = load ptr, ptr %12, align 8
  %81 = getelementptr inbounds %"struct.casadi::casadi_finite_diff_mem", ptr %80, i32 0, i32 1
  %82 = load double, ptr %81, align 8
  %83 = call double @llvm.fmuladd.f64(double %70, double %79, double %82)
  store double %83, ptr %18, align 8
  %84 = load double, ptr %13, align 8
  %85 = fcmp oge double %84, 0.000000e+00
  br i1 %85, label %86, label %93

86:                                               ; preds = %51
  %87 = load double, ptr %13, align 8
  %88 = load double, ptr %17, align 8
  %89 = load double, ptr %18, align 8
  %90 = fdiv double %88, %89
  %91 = call double @llvm.fabs.f64(double %90)
  %92 = call double @llvm.maxnum.f64(double %87, double %91)
  store double %92, ptr %13, align 8
  br label %93

93:                                               ; preds = %86, %51
  br label %94

94:                                               ; preds = %93, %46
  %95 = load i64, ptr %19, align 8
  %96 = add nsw i64 %95, 1
  store i64 %96, ptr %19, align 8
  br label %20, !llvm.loop !18

97:                                               ; preds = %20
  %98 = load double, ptr %13, align 8
  ret double %98
}

; Function Attrs: mustprogress uwtable
define noundef double @_ZNK6casadi11CentralDiff7calc_fdEPPdS1_S1_d(ptr noundef nonnull align 8 dereferenceable(1392) %0, ptr noundef %1, ptr noundef %2, ptr noundef %3, double noundef %4) unnamed_addr #4 align 2 {
  %6 = alloca ptr, align 8
  %7 = alloca ptr, align 8
  %8 = alloca ptr, align 8
  %9 = alloca ptr, align 8
  %10 = alloca double, align 8
  store ptr %0, ptr %6, align 8
  store ptr %1, ptr %7, align 8
  store ptr %2, ptr %8, align 8
  store ptr %3, ptr %9, align 8
  store double %4, ptr %10, align 8
  %11 = load ptr, ptr %6, align 8
  %12 = load ptr, ptr %7, align 8
  %13 = load ptr, ptr %8, align 8
  %14 = load ptr, ptr %9, align 8
  %15 = load double, ptr %10, align 8
  %16 = getelementptr inbounds %"class.casadi::FiniteDiff", ptr %11, i32 0, i32 5
  %17 = load i64, ptr %16, align 8
  %18 = getelementptr inbounds %"class.casadi::FiniteDiff", ptr %11, i32 0, i32 9
  %19 = call noundef double @_ZN6casadi23casadi_central_diff_oldIdEET_PPS1_S2_S2_S1_xPKNS_22casadi_finite_diff_memIS1_EE(ptr noundef %12, ptr noundef %13, ptr noundef %14, double noundef %15, i64 noundef %17, ptr noundef %18)
  ret double %19
}