; Function Attrs: mustprogress nofree norecurse nosync nounwind memory(read, argmem: readwrite, inaccessiblemem: none) uwtable
define noundef double @_ZNK6casadi11CentralDiff7calc_fdEPPdS1_S1_d(ptr nocapture noundef nonnull readonly align 8 dereferenceable(1392) %0, ptr nocapture noundef readonly %1, ptr nocapture noundef readonly %2, ptr nocapture noundef writeonly %3, double noundef %4) unnamed_addr #13 align 2 {
  %6 = getelementptr inbounds i8, ptr %0, i64 1336
  %7 = load i64, ptr %6, align 8
  %8 = getelementptr inbounds i8, ptr %0, i64 1368
  %9 = icmp sgt i64 %7, 0
  br i1 %9, label %.lr.ph.i, label %_ZN6casadi23casadi_central_diff_oldIdEET_PPS1_S2_S2_S1_xPKNS_22casadi_finite_diff_memIS1_EE.exit

.lr.ph.i:                                         ; preds = %5
  %10 = getelementptr inbounds i8, ptr %1, i64 8
  %11 = fmul double %4, 2.000000e+00
  %12 = getelementptr inbounds i8, ptr %0, i64 1376
  br label %13

13:                                               ; preds = %52, %.lr.ph.i
  %.032.i = phi i64 [ 0, %.lr.ph.i ], [ %53, %52 ]
  %.03031.i = phi double [ 0.000000e+00, %.lr.ph.i ], [ %.1.i, %52 ]
  %14 = load ptr, ptr %10, align 8
  %15 = getelementptr inbounds double, ptr %14, i64 %.032.i
  %16 = load double, ptr %15, align 8
  %17 = tail call double @llvm.fabs.f64(double %16)
  %18 = fcmp ueq double %17, 0x7FF0000000000000
  br i1 %18, label %30, label %19

19:                                               ; preds = %13
  %20 = getelementptr inbounds double, ptr %2, i64 %.032.i
  %21 = load double, ptr %20, align 8
  %22 = tail call double @llvm.fabs.f64(double %21)
  %23 = fcmp ueq double %22, 0x7FF0000000000000
  br i1 %23, label %30, label %24

24:                                               ; preds = %19
  %25 = load ptr, ptr %1, align 8
  %26 = getelementptr inbounds double, ptr %25, i64 %.032.i
  %27 = load double, ptr %26, align 8
  %28 = tail call double @llvm.fabs.f64(double %27)
  %29 = fcmp ueq double %28, 0x7FF0000000000000
  br i1 %29, label %30, label %32

30:                                               ; preds = %24, %19, %13
  %31 = getelementptr inbounds double, ptr %3, i64 %.032.i
  store double 0x7FF8000000000000, ptr %31, align 8
  br label %52

32:                                               ; preds = %24
  %33 = fsub double %16, %27
  %34 = fdiv double %33, %11
  %35 = getelementptr inbounds double, ptr %3, i64 %.032.i
  store double %34, ptr %35, align 8
  %36 = fcmp ult double %.03031.i, 0.000000e+00
  br i1 %36, label %52, label %37

37:                                               ; preds = %32
  %38 = load double, ptr %8, align 8
  %39 = fdiv double %38, %4
  %40 = fsub double %16, %21
  %41 = tail call double @llvm.fabs.f64(double %40)
  %42 = fsub double %21, %27
  %43 = tail call double @llvm.fabs.f64(double %42)
  %44 = tail call double @llvm.maxnum.f64(double %41, double %43)
  %45 = load double, ptr %12, align 8
  %46 = tail call double @llvm.fmuladd.f64(double %39, double %44, double %45)
  %47 = tail call double @llvm.fmuladd.f64(double %21, double -2.000000e+00, double %16)
  %48 = fadd double %47, %27
  %49 = fdiv double %48, %46
  %50 = tail call double @llvm.fabs.f64(double %49)
  %51 = tail call double @llvm.maxnum.f64(double %.03031.i, double %50)
  br label %52

52:                                               ; preds = %37, %32, %30
  %.1.i = phi double [ %51, %37 ], [ %.03031.i, %32 ], [ -1.000000e+00, %30 ]
  %53 = add nuw nsw i64 %.032.i, 1
  %exitcond.not.i = icmp eq i64 %53, %7
  br i1 %exitcond.not.i, label %_ZN6casadi23casadi_central_diff_oldIdEET_PPS1_S2_S2_S1_xPKNS_22casadi_finite_diff_memIS1_EE.exit, label %13, !llvm.loop !39

_ZN6casadi23casadi_central_diff_oldIdEET_PPS1_S2_S2_S1_xPKNS_22casadi_finite_diff_memIS1_EE.exit: ; preds = %52, %5
  %.030.lcssa.i = phi double [ 0.000000e+00, %5 ], [ %.1.i, %52 ]
  ret double %.030.lcssa.i
}